target datalayout = "e-m:e-p270:32:32-p271:32:32-p272:64:64-i64:64-f80:128-n8:16:32:64-S128"
target triple = "x86_64-pc-linux-gnu"

@.str = private unnamed_addr constant [3 x i8] c"%c\00", align 1
@.str.1 = private unnamed_addr constant [2 x i8] c"\0A\00", align 1

; Function Attrs: noinline nounwind uwtable
define dso_local signext i8 @investigate(i8* %0) #0 {
  %2 = alloca i8*, align 8
  %3 = alloca i32, align 4
  %4 = alloca i32, align 4
  %5 = alloca i32, align 4
  %6 = alloca i32, align 4
  %7 = alloca i32, align 4
  %8 = alloca i32, align 4
  %9 = alloca i32, align 4
  %10 = alloca i32, align 4
  %11 = alloca i32, align 4
  %12 = alloca [100 x i8], align 16
  store i8* %0, i8** %2, align 8
  store i32 0, i32* %7, align 4
  store i32 0, i32* %8, align 4
  store i32 0, i32* %10, align 4
  store i32 0, i32* %11, align 4
  %13 = load i8*, i8** %2, align 8
  %14 = call i64 @strlen(i8* %13) #3
  %15 = trunc i64 %14 to i32
  store i32 %15, i32* %6, align 4
  store i32 0, i32* %3, align 4
  br label %16

16:                                               ; preds = %43, %1
  %17 = load i32, i32* %3, align 4
  %18 = load i32, i32* %6, align 4
  %19 = icmp slt i32 %17, %18
  br i1 %19, label %20, label %46

20:                                               ; preds = %16
  %21 = load i8*, i8** %2, align 8
  %22 = load i32, i32* %3, align 4
  %23 = sext i32 %22 to i64
  %24 = getelementptr inbounds i8, i8* %21, i64 %23
  %25 = load i8, i8* %24, align 1
  %26 = sext i8 %25 to i32
  %27 = icmp eq i32 %26, 40
  br i1 %27, label %28, label %31

28:                                               ; preds = %20
  %29 = load i32, i32* %7, align 4
  %30 = add nsw i32 %29, 1
  store i32 %30, i32* %7, align 4
  br label %31

31:                                               ; preds = %28, %20
  %32 = load i8*, i8** %2, align 8
  %33 = load i32, i32* %3, align 4
  %34 = sext i32 %33 to i64
  %35 = getelementptr inbounds i8, i8* %32, i64 %34
  %36 = load i8, i8* %35, align 1
  %37 = sext i8 %36 to i32
  %38 = icmp eq i32 %37, 41
  br i1 %38, label %39, label %42

39:                                               ; preds = %31
  %40 = load i32, i32* %8, align 4
  %41 = add nsw i32 %40, 1
  store i32 %41, i32* %8, align 4
  br label %42

42:                                               ; preds = %39, %31
  br label %43

43:                                               ; preds = %42
  %44 = load i32, i32* %3, align 4
  %45 = add nsw i32 %44, 1
  store i32 %45, i32* %3, align 4
  br label %16

46:                                               ; preds = %16
  store i32 0, i32* %3, align 4
  br label %47

47:                                               ; preds = %124, %46
  %48 = load i32, i32* %3, align 4
  %49 = load i32, i32* %6, align 4
  %50 = icmp slt i32 %48, %49
  br i1 %50, label %51, label %127

51:                                               ; preds = %47
  %52 = load i32, i32* %3, align 4
  %53 = load i32, i32* %6, align 4
  %54 = sub nsw i32 %53, 1
  %55 = icmp eq i32 %52, %54
  br i1 %55, label %56, label %62

56:                                               ; preds = %51
  %57 = load i32, i32* %10, align 4
  %58 = load i32, i32* %11, align 4
  %59 = icmp sgt i32 %57, %58
  br i1 %59, label %60, label %62

60:                                               ; preds = %56
  store i32 -1, i32* %3, align 4
  %61 = load i32, i32* %10, align 4
  store i32 %61, i32* %11, align 4
  br label %123

62:                                               ; preds = %56, %51
  %63 = load i8*, i8** %2, align 8
  %64 = load i32, i32* %3, align 4
  %65 = sext i32 %64 to i64
  %66 = getelementptr inbounds i8, i8* %63, i64 %65
  %67 = load i8, i8* %66, align 1
  %68 = sext i8 %67 to i32
  %69 = icmp ne i32 %68, 40
  br i1 %69, label %70, label %78

70:                                               ; preds = %62
  %71 = load i32, i32* %3, align 4
  %72 = sext i32 %71 to i64
  %73 = getelementptr inbounds [100 x i8], [100 x i8]* %12, i64 0, i64 %72
  %74 = load i8, i8* %73, align 1
  %75 = sext i8 %74 to i32
  %76 = icmp eq i32 %75, 32
  %77 = zext i1 %76 to i32
  br label %124

78:                                               ; preds = %62
  %79 = load i32, i32* %3, align 4
  %80 = add nsw i32 %79, 1
  store i32 %80, i32* %4, align 4
  br label %81

81:                                               ; preds = %117, %78
  %82 = load i32, i32* %4, align 4
  %83 = load i32, i32* %6, align 4
  %84 = icmp slt i32 %82, %83
  br i1 %84, label %85, label %120

85:                                               ; preds = %81
  %86 = load i8*, i8** %2, align 8
  %87 = load i32, i32* %4, align 4
  %88 = sext i32 %87 to i64
  %89 = getelementptr inbounds i8, i8* %86, i64 %88
  %90 = load i8, i8* %89, align 1
  %91 = sext i8 %90 to i32
  %92 = icmp eq i32 %91, 40
  br i1 %92, label %93, label %96

93:                                               ; preds = %85
  %94 = load i32, i32* %4, align 4
  %95 = sub nsw i32 %94, 1
  store i32 %95, i32* %3, align 4
  br label %120

96:                                               ; preds = %85
  %97 = load i8*, i8** %2, align 8
  %98 = load i32, i32* %4, align 4
  %99 = sext i32 %98 to i64
  %100 = getelementptr inbounds i8, i8* %97, i64 %99
  %101 = load i8, i8* %100, align 1
  %102 = sext i8 %101 to i32
  %103 = icmp eq i32 %102, 41
  br i1 %103, label %104, label %115

104:                                              ; preds = %96
  %105 = load i8*, i8** %2, align 8
  %106 = load i32, i32* %3, align 4
  %107 = sext i32 %106 to i64
  %108 = getelementptr inbounds i8, i8* %105, i64 %107
  store i8 91, i8* %108, align 1
  %109 = load i8*, i8** %2, align 8
  %110 = load i32, i32* %4, align 4
  %111 = sext i32 %110 to i64
  %112 = getelementptr inbounds i8, i8* %109, i64 %111
  store i8 93, i8* %112, align 1
  %113 = load i32, i32* %10, align 4
  %114 = add nsw i32 %113, 1
  store i32 %114, i32* %10, align 4
  br label %120

115:                                              ; preds = %96
  br label %116

116:                                              ; preds = %115
  br label %117

117:                                              ; preds = %116
  %118 = load i32, i32* %4, align 4
  %119 = add nsw i32 %118, 1
  store i32 %119, i32* %4, align 4
  br label %81

120:                                              ; preds = %104, %93, %81
  br label %121

121:                                              ; preds = %120
  br label %122

122:                                              ; preds = %121
  br label %123

123:                                              ; preds = %122, %60
  br label %124

124:                                              ; preds = %123, %70
  %125 = load i32, i32* %3, align 4
  %126 = add nsw i32 %125, 1
  store i32 %126, i32* %3, align 4
  br label %47

127:                                              ; preds = %47
  store i32 0, i32* %3, align 4
  br label %128

128:                                              ; preds = %162, %127
  %129 = load i32, i32* %3, align 4
  %130 = load i32, i32* %6, align 4
  %131 = icmp slt i32 %129, %130
  br i1 %131, label %132, label %165

132:                                              ; preds = %128
  %133 = load i8*, i8** %2, align 8
  %134 = load i32, i32* %3, align 4
  %135 = sext i32 %134 to i64
  %136 = getelementptr inbounds i8, i8* %133, i64 %135
  %137 = load i8, i8* %136, align 1
  %138 = sext i8 %137 to i32
  %139 = icmp eq i32 %138, 40
  br i1 %139, label %140, label %144

140:                                              ; preds = %132
  %141 = load i32, i32* %3, align 4
  %142 = sext i32 %141 to i64
  %143 = getelementptr inbounds [100 x i8], [100 x i8]* %12, i64 0, i64 %142
  store i8 36, i8* %143, align 1
  br label %161

144:                                              ; preds = %132
  %145 = load i8*, i8** %2, align 8
  %146 = load i32, i32* %3, align 4
  %147 = sext i32 %146 to i64
  %148 = getelementptr inbounds i8, i8* %145, i64 %147
  %149 = load i8, i8* %148, align 1
  %150 = sext i8 %149 to i32
  %151 = icmp eq i32 %150, 41
  br i1 %151, label %152, label %156

152:                                              ; preds = %144
  %153 = load i32, i32* %3, align 4
  %154 = sext i32 %153 to i64
  %155 = getelementptr inbounds [100 x i8], [100 x i8]* %12, i64 0, i64 %154
  store i8 63, i8* %155, align 1
  br label %160

156:                                              ; preds = %144
  %157 = load i32, i32* %3, align 4
  %158 = sext i32 %157 to i64
  %159 = getelementptr inbounds [100 x i8], [100 x i8]* %12, i64 0, i64 %158
  store i8 32, i8* %159, align 1
  br label %160

160:                                              ; preds = %156, %152
  br label %161

161:                                              ; preds = %160, %140
  br label %162

162:                                              ; preds = %161
  %163 = load i32, i32* %3, align 4
  %164 = add nsw i32 %163, 1
  store i32 %164, i32* %3, align 4
  br label %128

165:                                              ; preds = %128
  store i32 0, i32* %3, align 4
  br label %166

166:                                              ; preds = %197, %165
  %167 = load i32, i32* %3, align 4
  %168 = load i32, i32* %6, align 4
  %169 = icmp slt i32 %167, %168
  br i1 %169, label %170, label %200

170:                                              ; preds = %166
  %171 = load i8*, i8** %2, align 8
  %172 = load i32, i32* %3, align 4
  %173 = sext i32 %172 to i64
  %174 = getelementptr inbounds i8, i8* %171, i64 %173
  %175 = load i8, i8* %174, align 1
  %176 = sext i8 %175 to i32
  %177 = icmp eq i32 %176, 91
  br i1 %177, label %178, label %183

178:                                              ; preds = %170
  %179 = load i8*, i8** %2, align 8
  %180 = load i32, i32* %3, align 4
  %181 = sext i32 %180 to i64
  %182 = getelementptr inbounds i8, i8* %179, i64 %181
  store i8 40, i8* %182, align 1
  br label %183

183:                                              ; preds = %178, %170
  %184 = load i8*, i8** %2, align 8
  %185 = load i32, i32* %3, align 4
  %186 = sext i32 %185 to i64
  %187 = getelementptr inbounds i8, i8* %184, i64 %186
  %188 = load i8, i8* %187, align 1
  %189 = sext i8 %188 to i32
  %190 = icmp eq i32 %189, 93
  br i1 %190, label %191, label %196

191:                                              ; preds = %183
  %192 = load i8*, i8** %2, align 8
  %193 = load i32, i32* %3, align 4
  %194 = sext i32 %193 to i64
  %195 = getelementptr inbounds i8, i8* %192, i64 %194
  store i8 41, i8* %195, align 1
  br label %196

196:                                              ; preds = %191, %183
  br label %197

197:                                              ; preds = %196
  %198 = load i32, i32* %3, align 4
  %199 = add nsw i32 %198, 1
  store i32 %199, i32* %3, align 4
  br label %166

200:                                              ; preds = %166
  store i32 0, i32* %3, align 4
  br label %201

201:                                              ; preds = %213, %200
  %202 = load i32, i32* %3, align 4
  %203 = load i32, i32* %6, align 4
  %204 = icmp slt i32 %202, %203
  br i1 %204, label %205, label %216

205:                                              ; preds = %201
  %206 = load i8*, i8** %2, align 8
  %207 = load i32, i32* %3, align 4
  %208 = sext i32 %207 to i64
  %209 = getelementptr inbounds i8, i8* %206, i64 %208
  %210 = load i8, i8* %209, align 1
  %211 = sext i8 %210 to i32
  %212 = call i32 (i8*, ...) @printf(i8* getelementptr inbounds ([3 x i8], [3 x i8]* @.str, i64 0, i64 0), i32 %211)
  br label %213

213:                                              ; preds = %205
  %214 = load i32, i32* %3, align 4
  %215 = add nsw i32 %214, 1
  store i32 %215, i32* %3, align 4
  br label %201

216:                                              ; preds = %201
  %217 = call i32 (i8*, ...) @printf(i8* getelementptr inbounds ([2 x i8], [2 x i8]* @.str.1, i64 0, i64 0))
  store i32 0, i32* %3, align 4
  br label %218

218:                                              ; preds = %229, %216
  %219 = load i32, i32* %3, align 4
  %220 = load i32, i32* %6, align 4
  %221 = icmp slt i32 %219, %220
  br i1 %221, label %222, label %232

222:                                              ; preds = %218
  %223 = load i32, i32* %3, align 4
  %224 = sext i32 %223 to i64
  %225 = getelementptr inbounds [100 x i8], [100 x i8]* %12, i64 0, i64 %224
  %226 = load i8, i8* %225, align 1
  %227 = sext i8 %226 to i32
  %228 = call i32 (i8*, ...) @printf(i8* getelementptr inbounds ([3 x i8], [3 x i8]* @.str, i64 0, i64 0), i32 %227)
  br label %229

229:                                              ; preds = %222
  %230 = load i32, i32* %3, align 4
  %231 = add nsw i32 %230, 1
  store i32 %231, i32* %3, align 4
  br label %218

232:                                              ; preds = %218
  ret i8 0
}

; Function Attrs: noinline nounwind uwtable
define dso_local i32 @main() #0 {
  %1 = alloca i32, align 4
  %2 = alloca i32, align 4
  %3 = alloca i32, align 4
  %4 = alloca [100 x i8], align 16
  store i32 0, i32* %1, align 4
  br label %5

5:                                                ; preds = %9, %0
  %6 = getelementptr inbounds [100 x i8], [100 x i8]* %4, i64 0, i64 0
  %7 = call i32 (i8*, ...) bitcast (i32 (...)* @gets to i32 (i8*, ...)*)(i8* %6)
  %8 = icmp ne i32 %7, 0
  br i1 %8, label %9, label %13

9:                                                ; preds = %5
  %10 = getelementptr inbounds [100 x i8], [100 x i8]* %4, i64 0, i64 0
  %11 = call signext i8 @investigate(i8* %10)
  %12 = call i32 (i8*, ...) @printf(i8* getelementptr inbounds ([2 x i8], [2 x i8]* @.str.1, i64 0, i64 0))
  br label %5

13:                                               ; preds = %5
  %14 = load i32, i32* %1, align 4
  ret i32 %14
}